(dp0
S'username'
p1
S'propstry43101'
p2
sS'password'
p3
S'Opecvague4'
p4
sS'email'
p5
S'propst.ry4Jnj@hotmail.com.ar'
p6
s.(dp0
S'username'
p1
S'Epifania972292'
p2
sS'password'
p3
S'1quAbPBX'
p4
sS'email'
p5
S'Epif.ania973tp@hotmail.co.uk'
p6
s.(dp0
S'username'
p1
S'pregnancy266096'
p2
sS'password'
p3
S'Kkoverbidsampsonsouthamptonstill3'
p4
sS'email'
p5
S'pregnancy26F@mail.com'
p6
s.(dp0
S'username'
p1
S'phocis5813'
p2
sS'password'
p3
S'Watchbandpaunchysnowball0'
p4
sS'email'
p5
S'phocisC@fibertel.com.ar'
p6
s.(dp0
S'username'
p1
S'revailing342563'
p2
sS'password'
p3
S'O2nr1xRZdFy'
p4
sS'email'
p5
S'revailing34v@tiscali.co.uk'
p6
s.(dp0
S'username'
p1
S'efta382161'
p2
sS'password'
p3
S'Kc19UgR4h1D'
p4
sS'email'
p5
S'e.fta38u84@blueyonder.co.uk'
p6
s.(dp0
S'username'
p1
S'wpb756121'
p2
sS'password'
p3
S'l2lNgcC'
p4
sS'email'
p5
S'wpb75y@live.com.ar'
p6
s.(dp0
S'username'
p1
S'seccentric10007'
p2
sS'password'
p3
S'SsbandanaraiderDavid3'
p4
sS'email'
p5
S'seccentric1d4@yahoo.com.ar'
p6
s.(dp0
S'username'
p1
S'annisdale310119'
p2
sS'password'
p3
S'Rj4PPOqbQ'
p4
sS'email'
p5
S'annisdale314p@verizon.net'
p6
s.(dp0
S'username'
p1
S'eseysesame21282'
p2
sS'password'
p3
S'MasonMalachi8'
p4
sS'email'
p5
S'eseysesame2Jk@gmx.com'
p6
s.(dp0
S'username'
p1
S'tau51230'
p2
sS'password'
p3
S'65BXtyWFW'
p4
sS'email'
p5
S'tau5@freeserve.co.uk'
p6
s.(dp0
S'username'
p1
S'Adriene50944'
p2
sS'password'
p3
S'MMpourprototherian6'
p4
sS'email'
p5
S'Adriene5@live.com'
p6
s.(dp0
S'username'
p1
S'puss479772'
p2
sS'password'
p3
S'MmformeSharan0'
p4
sS'email'
p5
S'puss47@live.com'
p6
s.(dp0
S'username'
p1
S'Ethan7422'
p2
sS'password'
p3
S'TtAydenedginesspostcard3'
p4
sS'email'
p5
S'Et.hanxCX@facebook.com'
p6
s.(dp0
S'username'
p1
S'nfrellies080502'
p2
sS'password'
p3
S'vb8sBg5eu'
p4
sS'email'
p5
S'nfrellies080cd@googlemail.com'
p6
s.(dp0
S'username'
p1
S'Elina952476'
p2
sS'password'
p3
S'Ceolabeng1'
p4
sS'email'
p5
S'Elina952Zv@facebook.com'
p6
s.(dp0
S'username'
p1
S'blob0071'
p2
sS'password'
p3
S'A0X1AuB2R'
p4
sS'email'
p5
S'blob0@hotmail.com'
p6
s.(dp0
S'username'
p1
S'bertshung204291'
p2
sS'password'
p3
S'vMz0AFs9bZF'
p4
sS'email'
p5
S'bertshung204X@facebook.com'
p6
s.(dp0
S'username'
p1
S'smoke034280'
p2
sS'password'
p3
S'Zd488asS11'
p4
sS'email'
p5
S'smoke034Qhb@hotmail.co.uk'
p6
s.(dp0
S'username'
p1
S'crossnext17364'
p2
sS'password'
p3
S'9Oh5GXIM2Tcy'
p4
sS'email'
p5
S'crossnext17@google.com'
p6
s.(dp0
S'username'
p1
S'Suzanna32732'
p2
sS'password'
p3
S'Ggnonesduke6'
p4
sS'email'
p5
S'Suzanna32o@comcast.net'
p6
s.(dp0
S'username'
p1
S'haunch678363'
p2
sS'password'
p3
S'25oN564'
p4
sS'email'
p5
S'hau.nch6785zd@gmail.com'
p6
s.(dp0
S'username'
p1
S'Francoise6473'
p2
sS'password'
p3
S'Armsdiscoverautistic4'
p4
sS'email'
p5
S'Francoise6Ih@hotmail.com'
p6
s.(dp0
S'username'
p1
S'Soon43346'
p2
sS'password'
p3
S'I1Dp4JXJnI'
p4
sS'email'
p5
S'So.on43OHG@me.com'
p6
s.(dp0
S'username'
p1
S'ypeakcurd855654'
p2
sS'password'
p3
S'IICharlenamangroveoverthrow4'
p4
sS'email'
p5
S'ypeakcurd855v@facebook.com'
p6
s.(dp0
S'username'
p1
S'moxinsomnia4498'
p2
sS'password'
p3
S'Pambarchitectunflavoredchair2'
p4
sS'email'
p5
S'moxinsomnia45@comcast.net'
p6
s.(dp0
S'username'
p1
S'trikeeclair5120'
p2
sS'password'
p3
S'rucS6GI3D'
p4
sS'email'
p5
S'trikeeclair5phh@facebook.com'
p6
s.(dp0
S'username'
p1
S'ulturecorky5791'
p2
sS'password'
p3
S'Cabepaunchysnowball5'
p4
sS'email'
p5
S'ulturecorky5R9@msn.com'
p6
s.(dp0
S'username'
p1
S'eeseysesame6880'
p2
sS'password'
p3
S'4pr5n4yidW'
p4
sS'email'
p5
S'eeseysesame6o@hotmail.co.uk'
p6
s.(dp0
S'username'
p1
S'jukes897562'
p2
sS'password'
p3
S'Tyreephren6'
p4
sS'email'
p5
S'jukes897Jk@gmail.com'
p6
s.(dp0
S'username'
p1
S'grouchpolar9295'
p2
sS'password'
p3
S'PpRobertCaroline5'
p4
sS'email'
p5
S'grouchpolar9H8D@comcast.net'
p6
s.(dp0
S'username'
p1
S'art6164'
p2
sS'password'
p3
S'k4lo8SW'
p4
sS'email'
p5
S'art6@live.com'
p6
s.(dp0
S'username'
p1
S'spare55081'
p2
sS'password'
p3
S'Aaparolemagicianrichesseglozing8'
p4
sS'email'
p5
S'spare55mX6@msn.com'
p6
s.(dp0
S'username'
p1
S'fridgereno56753'
p2
sS'password'
p3
S'Qbe7zUf'
p4
sS'email'
p5
S'fridgereno56v@mac.com'
p6
s.(dp0
S'username'
p1
S'Robert714428'
p2
sS'password'
p3
S'JJsleepunsoothable2'
p4
sS'email'
p5
S'Robert714Ra@gmx.com'
p6
s.(dp0
S'username'
p1
S'lmflannels76980'
p2
sS'password'
p3
S'Canesquaresmatterzirconium4'
p4
sS'email'
p5
S'lmflannels76f@google.com'
p6
s.(dp0
S'username'
p1
S'spathe6424'
p2
sS'password'
p3
S'LlfridgerenoTova4'
p4
sS'email'
p5
S'spathe6@googlemail.com'
p6
s.(dp0
S'username'
p1
S'igloo69497'
p2
sS'password'
p3
S'DDpreferredminnesotachisholmlegal9'
p4
sS'email'
p5
S'igloo69D@googlemail.com'
p6
s.(dp0
S'username'
p1
S'plain2401'
p2
sS'password'
p3
S'UUJosephviabilitycarload2'
p4
sS'email'
p5
S'plain2@mac.com'
p6
s.(dp0
S'username'
p1
S'vydesktop385908'
p2
sS'password'
p3
S'Fm6y8IEI'
p4
sS'email'
p5
S'vydesktop385@me.com'
p6
s.(dp0
S'username'
p1
S'Giovanni97277'
p2
sS'password'
p3
S'WwTalithacubelunch3'
p4
sS'email'
p5
S'Giovanni97ZAa@googlemail.com'
p6
s.(dp0
S'username'
p1
S'George227381'
p2
sS'password'
p3
S'OOPansytimingregret0'
p4
sS'email'
p5
S'George227ab@gmail.com'
p6
s.(dp0
S'username'
p1
S'esstirrup092990'
p2
sS'password'
p3
S'BBsightskulkalfalfa3'
p4
sS'email'
p5
S'esstirrup092yd3@msn.com'
p6
s.(dp0
S'username'
p1
S'squirt287957'
p2
sS'password'
p3
S'Antigravitybouquetpotentialmosaic6'
p4
sS'email'
p5
S'squirt287@gmx.com'
p6
s.(dp0
S'username'
p1
S'prestored46695'
p2
sS'password'
p3
S'n7AyGQl'
p4
sS'email'
p5
S'prestored46@hotmail.com'
p6
s.(dp0
S'username'
p1
S'crossnext7990'
p2
sS'password'
p3
S'Llhindererphren1'
p4
sS'email'
p5
S'crossnext7@mac.com'
p6
s.(dp0
S'username'
p1
S'Zelda208815'
p2
sS'password'
p3
S'SSneuromastratfordhockuntaken8'
p4
sS'email'
p5
S'Zelda208@comcast.net'
p6
s.(dp0
S'username'
p1
S'drupfells781110'
p2
sS'password'
p3
S'MMstarshipkoreanking8'
p4
sS'email'
p5
S'drupfells7815T@mac.com'
p6
s.(dp0
S'username'
p1
S'lear870384'
p2
sS'password'
p3
S'vq0mYY8'
p4
sS'email'
p5
S'lear870WZU@google.com'
p6
s.(dp0
S'username'
p1
S'eudodevice15329'
p2
sS'password'
p3
S'FFkimonoputdownJeremiah7'
p4
sS'email'
p5
S'eudodevice15m@facebook.com'
p6
s.